target datalayout = "e-m:e-p270:32:32-p271:32:32-p272:64:64-i64:64-i128:128-f80:128-n8:16:32:64-S128"
target triple = "x86_64-pc-linux-gnu"

%class.anon = type { ptr }
%"class.llvm::BlockFrequency" = type { i64 }

; Function Attrs: mustprogress nounwind uwtable
define linkonce_odr hidden noundef i64 @_ZNK4llvm14BlockFrequency12getFrequencyEv(ptr noundef nonnull align 8 dereferenceable(8) %0) #1 comdat align 2 {
  %2 = alloca ptr, align 8
  store ptr %0, ptr %2, align 8
  %3 = load ptr, ptr %2, align 8
  %4 = getelementptr inbounds nuw %"class.llvm::BlockFrequency", ptr %3, i32 0, i32 0
  %5 = load i64, ptr %4, align 8
  ret i64 %5
}

; Function Attrs: mustprogress nounwind uwtable
define linkonce_odr hidden noundef double @_ZNK4llvm25MachineBlockFrequencyInfo32getBlockFreqRelativeToEntryBlockEPKNS_17MachineBasicBlockE(ptr noundef nonnull align 8 dereferenceable(8) %0, ptr noundef %1) #1 comdat align 2 {
  %3 = alloca ptr, align 8
  %4 = alloca ptr, align 8
  %5 = alloca %"class.llvm::BlockFrequency", align 8
  %6 = alloca %"class.llvm::BlockFrequency", align 8
  store ptr %0, ptr %3, align 8
  store ptr %1, ptr %4, align 8
  %7 = load ptr, ptr %3, align 8
  %8 = load ptr, ptr %4, align 8
  %9 = call i64 @_ZNK4llvm25MachineBlockFrequencyInfo12getBlockFreqEPKNS_17MachineBasicBlockE(ptr noundef nonnull align 8 dereferenceable(8) %7, ptr noundef %8)
  %10 = getelementptr inbounds nuw %"class.llvm::BlockFrequency", ptr %5, i32 0, i32 0
  store i64 %9, ptr %10, align 8
  %11 = call noundef i64 @_ZNK4llvm14BlockFrequency12getFrequencyEv(ptr noundef nonnull align 8 dereferenceable(8) %5)
  %12 = uitofp i64 %11 to double
  %13 = call i64 @_ZNK4llvm25MachineBlockFrequencyInfo12getEntryFreqEv(ptr noundef nonnull align 8 dereferenceable(8) %7)
  %14 = getelementptr inbounds nuw %"class.llvm::BlockFrequency", ptr %6, i32 0, i32 0
  store i64 %13, ptr %14, align 8
  %15 = call noundef i64 @_ZNK4llvm14BlockFrequency12getFrequencyEv(ptr noundef nonnull align 8 dereferenceable(8) %6)
  %16 = uitofp i64 %15 to double
  %17 = fdiv double %12, %16
  ret double %17
}

; Function Attrs: mustprogress nounwind uwtable
define internal noundef double @"_ZZN4llvm22calculateRegAllocScoreERKNS_15MachineFunctionERKNS_25MachineBlockFrequencyInfoEENK3$_0clERKNS_17MachineBasicBlockE"(ptr noundef nonnull align 8 dereferenceable(8) %0, ptr noundef nonnull align 8 dereferenceable(288) %1) #1 align 2 {
  %3 = alloca ptr, align 8
  %4 = alloca ptr, align 8
  store ptr %0, ptr %3, align 8
  store ptr %1, ptr %4, align 8
  %5 = load ptr, ptr %3, align 8
  %6 = getelementptr inbounds nuw %class.anon, ptr %5, i32 0, i32 0
  %7 = load ptr, ptr %6, align 8
  %8 = load ptr, ptr %4, align 8
  %9 = call noundef double @_ZNK4llvm25MachineBlockFrequencyInfo32getBlockFreqRelativeToEntryBlockEPKNS_17MachineBasicBlockE(ptr noundef nonnull align 8 dereferenceable(8) %7, ptr noundef %8)
  ret double %9
}

; Function Attrs: mustprogress nounwind uwtable
define internal noundef double @"_ZN4llvm12function_refIFdRKNS_17MachineBasicBlockEEE11callback_fnIZNS_22calculateRegAllocScoreERKNS_15MachineFunctionERKNS_25MachineBlockFrequencyInfoEE3$_0EEdlS3_"(i64 noundef %0, ptr noundef nonnull align 8 dereferenceable(288) %1) #1 align 2 {
  %3 = alloca i64, align 8
  %4 = alloca ptr, align 8
  store i64 %0, ptr %3, align 8
  store ptr %1, ptr %4, align 8
  %5 = load i64, ptr %3, align 8
  %6 = inttoptr i64 %5 to ptr
  %7 = load ptr, ptr %4, align 8
  %8 = call noundef double @"_ZZN4llvm22calculateRegAllocScoreERKNS_15MachineFunctionERKNS_25MachineBlockFrequencyInfoEENK3$_0clERKNS_17MachineBasicBlockE"(ptr noundef nonnull align 8 dereferenceable(8) %6, ptr noundef nonnull align 8 dereferenceable(288) %7)
  ret double %8
}