; Function Attrs: mustprogress nounwind uwtable
define internal noundef double @"_ZN4llvm12function_refIFdRKNS_17MachineBasicBlockEEE11callback_fnIZNS_22calculateRegAllocScoreERKNS_15MachineFunctionERKNS_25MachineBlockFrequencyInfoEE3$_0EEdlS3_"(i64 noundef %0, ptr noundef nonnull align 8 dereferenceable(288) %1) #0 align 2 {
  %3 = inttoptr i64 %0 to ptr
  %.val = load ptr, ptr %3, align 8
  %4 = tail call i64 @_ZNK4llvm25MachineBlockFrequencyInfo12getBlockFreqEPKNS_17MachineBasicBlockE(ptr noundef nonnull align 8 dereferenceable(8) %.val, ptr noundef nonnull align 8 dereferenceable(288) %1) #14
  %5 = uitofp i64 %4 to double
  %6 = tail call i64 @_ZNK4llvm25MachineBlockFrequencyInfo12getEntryFreqEv(ptr noundef nonnull align 8 dereferenceable(8) %.val) #14
  %7 = uitofp i64 %6 to double
  %8 = fdiv double %5, %7
  ret double %8
}